target datalayout = "e-m:e-p270:32:32-p271:32:32-p272:64:64-i64:64-i128:128-f80:128-n8:16:32:64-S128"
target triple = "x86_64-pc-linux-gnu"

%struct._archiveHandle = type { %struct.Archive, i32, ptr, ptr, i64, i64, i32, %struct.sqlparseInfo, i64, i32, ptr, i64, i64, i64, ptr, ptr, ptr, ptr, ptr, ptr, ptr, ptr, ptr, ptr, ptr, ptr, ptr, ptr, ptr, ptr, ptr, ptr, ptr, ptr, ptr, ptr, ptr, ptr, ptr, ptr, ptr, ptr, ptr, ptr, i32, i32, i8, i32, i8, i32, ptr, ptr, ptr, ptr, i32, i32, ptr, ptr, ptr, %struct.pg_compress_specification, i8, i32, i32, ptr, ptr, ptr, ptr, ptr, i32, ptr, i64, i64, i32, i32, i32, i32, ptr, ptr }
%struct.Archive = type { ptr, ptr, i32, ptr, i32, i8, i32, i32, i32, ptr, i32, i8, ptr, ptr, i8, i32, ptr }
%struct.sqlparseInfo = type { i32, i8, ptr }
%struct.pg_compress_specification = type { i32, i32, i32, i32, i8, ptr }
%struct.lclContext = type { ptr, ptr, ptr, ptr }
%struct.CompressFileHandle = type { ptr, ptr, ptr, ptr, ptr, ptr, ptr, ptr, ptr, %struct.pg_compress_specification, ptr }

@.str.17 = private unnamed_addr constant [35 x i8] c"could not write to output file: %s\00", align 1

; Function Attrs: nounwind uwtable
define internal i32 @_WriteByte(ptr noundef %0, i32 noundef %1) #0 {
  %3 = alloca ptr, align 8
  %4 = alloca i32, align 4
  %5 = alloca i8, align 1
  %6 = alloca ptr, align 8
  %7 = alloca ptr, align 8
  store ptr %0, ptr %3, align 8
  store i32 %1, ptr %4, align 4
  call void @llvm.lifetime.start.p0(i64 1, ptr %5) #9
  %8 = load i32, ptr %4, align 4
  %9 = trunc i32 %8 to i8
  store i8 %9, ptr %5, align 1
  call void @llvm.lifetime.start.p0(i64 8, ptr %6) #9
  %10 = load ptr, ptr %3, align 8
  %11 = getelementptr inbounds nuw %struct._archiveHandle, ptr %10, i32 0, i32 63
  %12 = load ptr, ptr %11, align 8
  store ptr %12, ptr %6, align 8
  call void @llvm.lifetime.start.p0(i64 8, ptr %7) #9
  %13 = load ptr, ptr %6, align 8
  %14 = getelementptr inbounds nuw %struct.lclContext, ptr %13, i32 0, i32 1
  %15 = load ptr, ptr %14, align 8
  store ptr %15, ptr %7, align 8
  %16 = call ptr @__errno_location() #12
  store i32 0, ptr %16, align 4
  %17 = load ptr, ptr %7, align 8
  %18 = getelementptr inbounds nuw %struct.CompressFileHandle, ptr %17, i32 0, i32 3
  %19 = load ptr, ptr %18, align 8
  %20 = load ptr, ptr %7, align 8
  %21 = call zeroext i1 %19(ptr noundef %5, i64 noundef 1, ptr noundef %20)
  br i1 %21, label %37, label %22

22:                                               ; preds = %2
  %23 = call ptr @__errno_location() #12
  %24 = load i32, ptr %23, align 4
  %25 = icmp eq i32 %24, 0
  br i1 %25, label %26, label %28

26:                                               ; preds = %22
  %27 = call ptr @__errno_location() #12
  store i32 28, ptr %27, align 4
  br label %28

28:                                               ; preds = %26, %22
  br label %29

29:                                               ; preds = %28
  %30 = load ptr, ptr %7, align 8
  %31 = getelementptr inbounds nuw %struct.CompressFileHandle, ptr %30, i32 0, i32 8
  %32 = load ptr, ptr %31, align 8
  %33 = load ptr, ptr %7, align 8
  %34 = call ptr %32(ptr noundef %33)
  call void (i32, i32, ptr, ...) @pg_log_generic(i32 noundef 4, i32 noundef 0, ptr noundef @.str.17, ptr noundef %34)
  call void @exit_nicely(i32 noundef 1) #11
  unreachable

35:                                               ; No predecessors!
  br label %36

36:                                               ; preds = %35
  br label %37

37:                                               ; preds = %36, %2
  call void @llvm.lifetime.end.p0(i64 8, ptr %7) #9
  call void @llvm.lifetime.end.p0(i64 8, ptr %6) #9
  call void @llvm.lifetime.end.p0(i64 1, ptr %5) #9
  ret i32 1
}