; Function Attrs: nounwind uwtable
define internal noundef i32 @_WriteByte(ptr noundef readonly captures(none) %0, i32 noundef %1) #0 {
  %3 = alloca i8, align 1
  call void @llvm.lifetime.start.p0(i64 1, ptr nonnull %3) #14
  %4 = trunc i32 %1 to i8
  store i8 %4, ptr %3, align 1
  %5 = getelementptr inbounds nuw i8, ptr %0, i64 592
  %6 = load ptr, ptr %5, align 8
  %7 = getelementptr inbounds nuw i8, ptr %6, i64 8
  %8 = load ptr, ptr %7, align 8
  %9 = tail call ptr @__errno_location() #16
  store i32 0, ptr %9, align 4
  %10 = getelementptr inbounds nuw i8, ptr %8, i64 24
  %11 = load ptr, ptr %10, align 8
  %12 = call zeroext i1 %11(ptr noundef nonnull %3, i64 noundef 1, ptr noundef %8) #14
  br i1 %12, label %21, label %13

13:                                               ; preds = %2
  %14 = load i32, ptr %9, align 4
  %15 = icmp eq i32 %14, 0
  br i1 %15, label %16, label %17

16:                                               ; preds = %13
  store i32 28, ptr %9, align 4
  br label %17

17:                                               ; preds = %13, %16
  %18 = getelementptr inbounds nuw i8, ptr %8, i64 64
  %19 = load ptr, ptr %18, align 8
  %20 = call ptr %19(ptr noundef nonnull %8) #14
  call void (i32, i32, ptr, ...) @pg_log_generic(i32 noundef 4, i32 noundef 0, ptr noundef nonnull @.str.17, ptr noundef %20) #14
  call void @exit_nicely(i32 noundef 1) #15
  unreachable

21:                                               ; preds = %2
  call void @llvm.lifetime.end.p0(i64 1, ptr nonnull %3) #14
  ret i32 1
}